var ??0PwaHelperImpl@edge_pwahelper@@QEAA@XZ = Module.findExportByName("msedge_elf.dll", "??0PwaHelperImpl@edge_pwahelper@@QEAA@XZ")
Interceptor.attach(??0PwaHelperImpl@edge_pwahelper@@QEAA@XZ, {onLeave: function (args) {send("??0PwaHelperImpl@edge_pwahelper@@QEAA@XZ");}});

var ??1PwaHelperImpl@edge_pwahelper@@UEAA@XZ = Module.findExportByName("msedge_elf.dll", "??1PwaHelperImpl@edge_pwahelper@@UEAA@XZ")
Interceptor.attach(??1PwaHelperImpl@edge_pwahelper@@UEAA@XZ, {onLeave: function (args) {send("??1PwaHelperImpl@edge_pwahelper@@UEAA@XZ");}});

var ??_7PwaHelperImpl@edge_pwahelper@@6B@ = Module.findExportByName("msedge_elf.dll", "??_7PwaHelperImpl@edge_pwahelper@@6B@")
Interceptor.attach(??_7PwaHelperImpl@edge_pwahelper@@6B@, {onLeave: function (args) {send("??_7PwaHelperImpl@edge_pwahelper@@6B@");}});

var ?AppendMojoServerBindingInfo@PwaHelperImpl@edge_pwahelper@@AEAAXPEAVCommandLine@base@@@Z = Module.findExportByName("msedge_elf.dll", "?AppendMojoServerBindingInfo@PwaHelperImpl@edge_pwahelper@@AEAAXPEAVCommandLine@base@@@Z")
Interceptor.attach(?AppendMojoServerBindingInfo@PwaHelperImpl@edge_pwahelper@@AEAAXPEAVCommandLine@base@@@Z, {onLeave: function (args) {send("?AppendMojoServerBindingInfo@PwaHelperImpl@edge_pwahelper@@AEAAXPEAVCommandLine@base@@@Z");}});

var ?BadgeNotification@PwaHelperImpl@edge_pwahelper@@UEAAXW4BadgeNotificationType@mojom@2@AEBV?$basic_string@DU?$char_traits@D@__Cr@std@@V?$allocator@D@23@@__Cr@std@@@Z = Module.findExportByName("msedge_elf.dll", "?BadgeNotification@PwaHelperImpl@edge_pwahelper@@UEAAXW4BadgeNotificationType@mojom@2@AEBV?$basic_string@DU?$char_traits@D@__Cr@std@@V?$allocator@D@23@@__Cr@std@@@Z")
Interceptor.attach(?BadgeNotification@PwaHelperImpl@edge_pwahelper@@UEAAXW4BadgeNotificationType@mojom@2@AEBV?$basic_string@DU?$char_traits@D@__Cr@std@@V?$allocator@D@23@@__Cr@std@@@Z, {onLeave: function (args) {send("?BadgeNotification@PwaHelperImpl@edge_pwahelper@@UEAAXW4BadgeNotificationType@mojom@2@AEBV?$basic_string@DU?$char_traits@D@__Cr@std@@V?$allocator@D@23@@__Cr@std@@@Z");}});

var ?BindWidgetManager@PwaHelperImpl@edge_pwahelper@@AEAAXV?$ScopedHandleBase@VMessagePipeHandle@mojo@@@mojo@@@Z = Module.findExportByName("msedge_elf.dll", "?BindWidgetManager@PwaHelperImpl@edge_pwahelper@@AEAAXV?$ScopedHandleBase@VMessagePipeHandle@mojo@@@mojo@@@Z")
Interceptor.attach(?BindWidgetManager@PwaHelperImpl@edge_pwahelper@@AEAAXV?$ScopedHandleBase@VMessagePipeHandle@mojo@@@mojo@@@Z, {onLeave: function (args) {send("?BindWidgetManager@PwaHelperImpl@edge_pwahelper@@AEAAXV?$ScopedHandleBase@VMessagePipeHandle@mojo@@@mojo@@@Z");}});

var ?DigitalGoodsAbortPaymentApp@PwaHelperImpl@edge_pwahelper@@UEAAXV?$OnceCallback@$$A6AX_N@Z@base@@@Z = Module.findExportByName("msedge_elf.dll", "?DigitalGoodsAbortPaymentApp@PwaHelperImpl@edge_pwahelper@@UEAAXV?$OnceCallback@$$A6AX_N@Z@base@@@Z")
Interceptor.attach(?DigitalGoodsAbortPaymentApp@PwaHelperImpl@edge_pwahelper@@UEAAXV?$OnceCallback@$$A6AX_N@Z@base@@@Z, {onLeave: function (args) {send("?DigitalGoodsAbortPaymentApp@PwaHelperImpl@edge_pwahelper@@UEAAXV?$OnceCallback@$$A6AX_N@Z@base@@@Z");}});

var ?DigitalGoodsConsume@PwaHelperImpl@edge_pwahelper@@UEAAXAEBV?$basic_string@DU?$char_traits@D@__Cr@std@@V?$allocator@D@23@@__Cr@std@@V?$OnceCallback@$$A6AXW4BillingResponseCode@mojom@payments@@@Z@base@@@Z = Module.findExportByName("msedge_elf.dll", "?DigitalGoodsConsume@PwaHelperImpl@edge_pwahelper@@UEAAXAEBV?$basic_string@DU?$char_traits@D@__Cr@std@@V?$allocator@D@23@@__Cr@std@@V?$OnceCallback@$$A6AXW4BillingResponseCode@mojom@payments@@@Z@base@@@Z")
Interceptor.attach(?DigitalGoodsConsume@PwaHelperImpl@edge_pwahelper@@UEAAXAEBV?$basic_string@DU?$char_traits@D@__Cr@std@@V?$allocator@D@23@@__Cr@std@@V?$OnceCallback@$$A6AXW4BillingResponseCode@mojom@payments@@@Z@base@@@Z, {onLeave: function (args) {send("?DigitalGoodsConsume@PwaHelperImpl@edge_pwahelper@@UEAAXAEBV?$basic_string@DU?$char_traits@D@__Cr@std@@V?$allocator@D@23@@__Cr@std@@V?$OnceCallback@$$A6AXW4BillingResponseCode@mojom@payments@@@Z@base@@@Z");}});

var ?DigitalGoodsGetDetails@PwaHelperImpl@edge_pwahelper@@UEAAXAEBV?$vector@V?$basic_string@DU?$char_traits@D@__Cr@std@@V?$allocator@D@23@@__Cr@std@@V?$allocator@V?$basic_string@DU?$char_traits@D@__Cr@std@@V?$allocator@D@23@@__Cr@std@@@23@@__Cr@std@@V?$OnceCallback@$$A6AXW4BillingResponseCode@mojom@payments@@V?$vector@V?$StructPtr@VItemDetails@mojom@payments@@@mojo@@V?$allocator@V?$StructPtr@VItemDetails@mojom@payments@@@mojo@@@__Cr@std@@@__Cr@std@@@Z@base@@@Z = Module.findExportByName("msedge_elf.dll", "?DigitalGoodsGetDetails@PwaHelperImpl@edge_pwahelper@@UEAAXAEBV?$vector@V?$basic_string@DU?$char_traits@D@__Cr@std@@V?$allocator@D@23@@__Cr@std@@V?$allocator@V?$basic_string@DU?$char_traits@D@__Cr@std@@V?$allocator@D@23@@__Cr@std@@@23@@__Cr@std@@V?$OnceCallback@$$A6AXW4BillingResponseCode@mojom@payments@@V?$vector@V?$StructPtr@VItemDetails@mojom@payments@@@mojo@@V?$allocator@V?$StructPtr@VItemDetails@mojom@payments@@@mojo@@@__Cr@std@@@__Cr@std@@@Z@base@@@Z")
Interceptor.attach(?DigitalGoodsGetDetails@PwaHelperImpl@edge_pwahelper@@UEAAXAEBV?$vector@V?$basic_string@DU?$char_traits@D@__Cr@std@@V?$allocator@D@23@@__Cr@std@@V?$allocator@V?$basic_string@DU?$char_traits@D@__Cr@std@@V?$allocator@D@23@@__Cr@std@@@23@@__Cr@std@@V?$OnceCallback@$$A6AXW4BillingResponseCode@mojom@payments@@V?$vector@V?$StructPtr@VItemDetails@mojom@payments@@@mojo@@V?$allocator@V?$StructPtr@VItemDetails@mojom@payments@@@mojo@@@__Cr@std@@@__Cr@std@@@Z@base@@@Z, {onLeave: function (args) {send("?DigitalGoodsGetDetails@PwaHelperImpl@edge_pwahelper@@UEAAXAEBV?$vector@V?$basic_string@DU?$char_traits@D@__Cr@std@@V?$allocator@D@23@@__Cr@std@@V?$allocator@V?$basic_string@DU?$char_traits@D@__Cr@std@@V?$allocator@D@23@@__Cr@std@@@23@@__Cr@std@@V?$OnceCallback@$$A6AXW4BillingResponseCode@mojom@payments@@V?$vector@V?$StructPtr@VItemDetails@mojom@payments@@@mojo@@V?$allocator@V?$StructPtr@VItemDetails@mojom@payments@@@mojo@@@__Cr@std@@@__Cr@std@@@Z@base@@@Z");}});

var ?DigitalGoodsInvokePaymentApp@PwaHelperImpl@edge_pwahelper@@UEAAXAEBV?$basic_string@DU?$char_traits@D@__Cr@std@@V?$allocator@D@23@@__Cr@std@@V?$OnceCallback@$$A6AXW4PurchaseResponseCode@mojom@edge_pwahelper@@@Z@base@@@Z = Module.findExportByName("msedge_elf.dll", "?DigitalGoodsInvokePaymentApp@PwaHelperImpl@edge_pwahelper@@UEAAXAEBV?$basic_string@DU?$char_traits@D@__Cr@std@@V?$allocator@D@23@@__Cr@std@@V?$OnceCallback@$$A6AXW4PurchaseResponseCode@mojom@edge_pwahelper@@@Z@base@@@Z")
Interceptor.attach(?DigitalGoodsInvokePaymentApp@PwaHelperImpl@edge_pwahelper@@UEAAXAEBV?$basic_string@DU?$char_traits@D@__Cr@std@@V?$allocator@D@23@@__Cr@std@@V?$OnceCallback@$$A6AXW4PurchaseResponseCode@mojom@edge_pwahelper@@@Z@base@@@Z, {onLeave: function (args) {send("?DigitalGoodsInvokePaymentApp@PwaHelperImpl@edge_pwahelper@@UEAAXAEBV?$basic_string@DU?$char_traits@D@__Cr@std@@V?$allocator@D@23@@__Cr@std@@V?$OnceCallback@$$A6AXW4PurchaseResponseCode@mojom@edge_pwahelper@@@Z@base@@@Z");}});

var ?DigitalGoodsListPurchaseHistory@PwaHelperImpl@edge_pwahelper@@UEAAXV?$OnceCallback@$$A6AXW4BillingResponseCode@mojom@payments@@V?$vector@V?$InlinedStructPtr@VPurchaseReference@mojom@payments@@@mojo@@V?$allocator@V?$InlinedStructPtr@VPurchaseReference@mojom@payments@@@mojo@@@__Cr@std@@@__Cr@std@@@Z@base@@@Z = Module.findExportByName("msedge_elf.dll", "?DigitalGoodsListPurchaseHistory@PwaHelperImpl@edge_pwahelper@@UEAAXV?$OnceCallback@$$A6AXW4BillingResponseCode@mojom@payments@@V?$vector@V?$InlinedStructPtr@VPurchaseReference@mojom@payments@@@mojo@@V?$allocator@V?$InlinedStructPtr@VPurchaseReference@mojom@payments@@@mojo@@@__Cr@std@@@__Cr@std@@@Z@base@@@Z")
Interceptor.attach(?DigitalGoodsListPurchaseHistory@PwaHelperImpl@edge_pwahelper@@UEAAXV?$OnceCallback@$$A6AXW4BillingResponseCode@mojom@payments@@V?$vector@V?$InlinedStructPtr@VPurchaseReference@mojom@payments@@@mojo@@V?$allocator@V?$InlinedStructPtr@VPurchaseReference@mojom@payments@@@mojo@@@__Cr@std@@@__Cr@std@@@Z@base@@@Z, {onLeave: function (args) {send("?DigitalGoodsListPurchaseHistory@PwaHelperImpl@edge_pwahelper@@UEAAXV?$OnceCallback@$$A6AXW4BillingResponseCode@mojom@payments@@V?$vector@V?$InlinedStructPtr@VPurchaseReference@mojom@payments@@@mojo@@V?$allocator@V?$InlinedStructPtr@VPurchaseReference@mojom@payments@@@mojo@@@__Cr@std@@@__Cr@std@@@Z@base@@@Z");}});

var ?DigitalGoodsListPurchases@PwaHelperImpl@edge_pwahelper@@UEAAXV?$OnceCallback@$$A6AXW4BillingResponseCode@mojom@payments@@V?$vector@V?$InlinedStructPtr@VPurchaseReference@mojom@payments@@@mojo@@V?$allocator@V?$InlinedStructPtr@VPurchaseReference@mojom@payments@@@mojo@@@__Cr@std@@@__Cr@std@@@Z@base@@@Z = Module.findExportByName("msedge_elf.dll", "?DigitalGoodsListPurchases@PwaHelperImpl@edge_pwahelper@@UEAAXV?$OnceCallback@$$A6AXW4BillingResponseCode@mojom@payments@@V?$vector@V?$InlinedStructPtr@VPurchaseReference@mojom@payments@@@mojo@@V?$allocator@V?$InlinedStructPtr@VPurchaseReference@mojom@payments@@@mojo@@@__Cr@std@@@__Cr@std@@@Z@base@@@Z")
Interceptor.attach(?DigitalGoodsListPurchases@PwaHelperImpl@edge_pwahelper@@UEAAXV?$OnceCallback@$$A6AXW4BillingResponseCode@mojom@payments@@V?$vector@V?$InlinedStructPtr@VPurchaseReference@mojom@payments@@@mojo@@V?$allocator@V?$InlinedStructPtr@VPurchaseReference@mojom@payments@@@mojo@@@__Cr@std@@@__Cr@std@@@Z@base@@@Z, {onLeave: function (args) {send("?DigitalGoodsListPurchases@PwaHelperImpl@edge_pwahelper@@UEAAXV?$OnceCallback@$$A6AXW4BillingResponseCode@mojom@payments@@V?$vector@V?$InlinedStructPtr@VPurchaseReference@mojom@payments@@@mojo@@V?$allocator@V?$InlinedStructPtr@VPurchaseReference@mojom@payments@@@mojo@@@__Cr@std@@@__Cr@std@@@Z@base@@@Z");}});

var ?InitMojo@PwaHelperImpl@edge_pwahelper@@AEAAXXZ = Module.findExportByName("msedge_elf.dll", "?InitMojo@PwaHelperImpl@edge_pwahelper@@AEAAXXZ")
Interceptor.attach(?InitMojo@PwaHelperImpl@edge_pwahelper@@AEAAXXZ, {onLeave: function (args) {send("?InitMojo@PwaHelperImpl@edge_pwahelper@@AEAAXXZ");}});

var ?InitializeAppUserModelIdForCurrentProcess@PwaHelperImpl@edge_pwahelper@@QEAA_NXZ = Module.findExportByName("msedge_elf.dll", "?InitializeAppUserModelIdForCurrentProcess@PwaHelperImpl@edge_pwahelper@@QEAA_NXZ")
Interceptor.attach(?InitializeAppUserModelIdForCurrentProcess@PwaHelperImpl@edge_pwahelper@@QEAA_NXZ, {onLeave: function (args) {send("?InitializeAppUserModelIdForCurrentProcess@PwaHelperImpl@edge_pwahelper@@QEAA_NXZ");}});

var ?OnClientConnected@PwaHelperImpl@edge_pwahelper@@AEAAXPEAVWaitableEvent@base@@@Z = Module.findExportByName("msedge_elf.dll", "?OnClientConnected@PwaHelperImpl@edge_pwahelper@@AEAAXPEAVWaitableEvent@base@@@Z")
Interceptor.attach(?OnClientConnected@PwaHelperImpl@edge_pwahelper@@AEAAXPEAVWaitableEvent@base@@@Z, {onLeave: function (args) {send("?OnClientConnected@PwaHelperImpl@edge_pwahelper@@AEAAXPEAVWaitableEvent@base@@@Z");}});

var ?PinTileToStart@PwaHelperImpl@edge_pwahelper@@UEAAXXZ = Module.findExportByName("msedge_elf.dll", "?PinTileToStart@PwaHelperImpl@edge_pwahelper@@UEAAXXZ")
Interceptor.attach(?PinTileToStart@PwaHelperImpl@edge_pwahelper@@UEAAXXZ, {onLeave: function (args) {send("?PinTileToStart@PwaHelperImpl@edge_pwahelper@@UEAAXXZ");}});

var ?PinTileToTaskbar@PwaHelperImpl@edge_pwahelper@@UEAAXXZ = Module.findExportByName("msedge_elf.dll", "?PinTileToTaskbar@PwaHelperImpl@edge_pwahelper@@UEAAXXZ")
Interceptor.attach(?PinTileToTaskbar@PwaHelperImpl@edge_pwahelper@@UEAAXXZ, {onLeave: function (args) {send("?PinTileToTaskbar@PwaHelperImpl@edge_pwahelper@@UEAAXXZ");}});

var ?SetPwaHwnd@PwaHelperImpl@edge_pwahelper@@UEAAX_K@Z = Module.findExportByName("msedge_elf.dll", "?SetPwaHwnd@PwaHelperImpl@edge_pwahelper@@UEAAX_K@Z")
Interceptor.attach(?SetPwaHwnd@PwaHelperImpl@edge_pwahelper@@UEAAX_K@Z, {onLeave: function (args) {send("?SetPwaHwnd@PwaHelperImpl@edge_pwahelper@@UEAAX_K@Z");}});

var ?SetSingletonProcessId@PwaHelperImpl@edge_pwahelper@@UEAAXI@Z = Module.findExportByName("msedge_elf.dll", "?SetSingletonProcessId@PwaHelperImpl@edge_pwahelper@@UEAAXI@Z")
Interceptor.attach(?SetSingletonProcessId@PwaHelperImpl@edge_pwahelper@@UEAAXI@Z, {onLeave: function (args) {send("?SetSingletonProcessId@PwaHelperImpl@edge_pwahelper@@UEAAXI@Z");}});

var ?Shutdown@PwaHelperImpl@edge_pwahelper@@AEAAXI@Z = Module.findExportByName("msedge_elf.dll", "?Shutdown@PwaHelperImpl@edge_pwahelper@@AEAAXI@Z")
Interceptor.attach(?Shutdown@PwaHelperImpl@edge_pwahelper@@AEAAXI@Z, {onLeave: function (args) {send("?Shutdown@PwaHelperImpl@edge_pwahelper@@AEAAXI@Z");}});

var ?StartAppWithIncomingMojo@PwaHelperImpl@edge_pwahelper@@QEAAXVPlatformChannelEndpoint@mojo@@@Z = Module.findExportByName("msedge_elf.dll", "?StartAppWithIncomingMojo@PwaHelperImpl@edge_pwahelper@@QEAAXVPlatformChannelEndpoint@mojo@@@Z")
Interceptor.attach(?StartAppWithIncomingMojo@PwaHelperImpl@edge_pwahelper@@QEAAXVPlatformChannelEndpoint@mojo@@@Z, {onLeave: function (args) {send("?StartAppWithIncomingMojo@PwaHelperImpl@edge_pwahelper@@QEAAXVPlatformChannelEndpoint@mojo@@@Z");}});

var ?StartAppWithPlatformChannel@PwaHelperImpl@edge_pwahelper@@QEAAXV?$unique_ptr@VCommandLine@base@@U?$default_delete@VCommandLine@base@@@__Cr@std@@@__Cr@std@@@Z = Module.findExportByName("msedge_elf.dll", "?StartAppWithPlatformChannel@PwaHelperImpl@edge_pwahelper@@QEAAXV?$unique_ptr@VCommandLine@base@@U?$default_delete@VCommandLine@base@@@__Cr@std@@@__Cr@std@@@Z")
Interceptor.attach(?StartAppWithPlatformChannel@PwaHelperImpl@edge_pwahelper@@QEAAXV?$unique_ptr@VCommandLine@base@@U?$default_delete@VCommandLine@base@@@__Cr@std@@@__Cr@std@@@Z, {onLeave: function (args) {send("?StartAppWithPlatformChannel@PwaHelperImpl@edge_pwahelper@@QEAAXV?$unique_ptr@VCommandLine@base@@U?$default_delete@VCommandLine@base@@@__Cr@std@@@__Cr@std@@@Z");}});

var ?StartProcessWithMojoIPC@PwaHelperImpl@edge_pwahelper@@QEAAKPEAXV?$unique_ptr@VCommandLine@base@@U?$default_delete@VCommandLine@base@@@__Cr@std@@@__Cr@std@@V?$unique_ptr@VScopedTempDir@base@@U?$default_delete@VScopedTempDir@base@@@__Cr@std@@@45@@Z = Module.findExportByName("msedge_elf.dll", "?StartProcessWithMojoIPC@PwaHelperImpl@edge_pwahelper@@QEAAKPEAXV?$unique_ptr@VCommandLine@base@@U?$default_delete@VCommandLine@base@@@__Cr@std@@@__Cr@std@@V?$unique_ptr@VScopedTempDir@base@@U?$default_delete@VScopedTempDir@base@@@__Cr@std@@@45@@Z")
Interceptor.attach(?StartProcessWithMojoIPC@PwaHelperImpl@edge_pwahelper@@QEAAKPEAXV?$unique_ptr@VCommandLine@base@@U?$default_delete@VCommandLine@base@@@__Cr@std@@@__Cr@std@@V?$unique_ptr@VScopedTempDir@base@@U?$default_delete@VScopedTempDir@base@@@__Cr@std@@@45@@Z, {onLeave: function (args) {send("?StartProcessWithMojoIPC@PwaHelperImpl@edge_pwahelper@@QEAAKPEAXV?$unique_ptr@VCommandLine@base@@U?$default_delete@VCommandLine@base@@@__Cr@std@@@__Cr@std@@V?$unique_ptr@VScopedTempDir@base@@U?$default_delete@VScopedTempDir@base@@@__Cr@std@@@45@@Z");}});

var ?TryActivateInstance@PwaHelperImpl@edge_pwahelper@@AEAAXPEAVCommandLine@base@@@Z = Module.findExportByName("msedge_elf.dll", "?TryActivateInstance@PwaHelperImpl@edge_pwahelper@@AEAAXPEAVCommandLine@base@@@Z")
Interceptor.attach(?TryActivateInstance@PwaHelperImpl@edge_pwahelper@@AEAAXPEAVCommandLine@base@@@Z, {onLeave: function (args) {send("?TryActivateInstance@PwaHelperImpl@edge_pwahelper@@AEAAXPEAVCommandLine@base@@@Z");}});

var ?ValidateHandShake@PwaHelperImpl@edge_pwahelper@@AEAAXXZ = Module.findExportByName("msedge_elf.dll", "?ValidateHandShake@PwaHelperImpl@edge_pwahelper@@AEAAXXZ")
Interceptor.attach(?ValidateHandShake@PwaHelperImpl@edge_pwahelper@@AEAAXXZ, {onLeave: function (args) {send("?ValidateHandShake@PwaHelperImpl@edge_pwahelper@@AEAAXXZ");}});

var ClearReportsBetween_ExportThunk = Module.findExportByName("msedge_elf.dll", "ClearReportsBetween_ExportThunk")
Interceptor.attach(ClearReportsBetween_ExportThunk, {onLeave: function (args) {send("ClearReportsBetween_ExportThunk");}});

var CrashForException_ExportThunk = Module.findExportByName("msedge_elf.dll", "CrashForException_ExportThunk")
Interceptor.attach(CrashForException_ExportThunk, {onLeave: function (args) {send("CrashForException_ExportThunk");}});

var DisableHook = Module.findExportByName("msedge_elf.dll", "DisableHook")
Interceptor.attach(DisableHook, {onLeave: function (args) {send("DisableHook");}});

var DrainLog = Module.findExportByName("msedge_elf.dll", "DrainLog")
Interceptor.attach(DrainLog, {onLeave: function (args) {send("DrainLog");}});

var DumpHungProcessWithPtype_ExportThunk = Module.findExportByName("msedge_elf.dll", "DumpHungProcessWithPtype_ExportThunk")
Interceptor.attach(DumpHungProcessWithPtype_ExportThunk, {onLeave: function (args) {send("DumpHungProcessWithPtype_ExportThunk");}});

var DumpProcessWithoutCrash = Module.findExportByName("msedge_elf.dll", "DumpProcessWithoutCrash")
Interceptor.attach(DumpProcessWithoutCrash, {onLeave: function (args) {send("DumpProcessWithoutCrash");}});

var GetApplyHookResult = Module.findExportByName("msedge_elf.dll", "GetApplyHookResult")
Interceptor.attach(GetApplyHookResult, {onLeave: function (args) {send("GetApplyHookResult");}});

var GetBlockedModulesCount = Module.findExportByName("msedge_elf.dll", "GetBlockedModulesCount")
Interceptor.attach(GetBlockedModulesCount, {onLeave: function (args) {send("GetBlockedModulesCount");}});

var GetCrashReports_ExportThunk = Module.findExportByName("msedge_elf.dll", "GetCrashReports_ExportThunk")
Interceptor.attach(GetCrashReports_ExportThunk, {onLeave: function (args) {send("GetCrashReports_ExportThunk");}});

var GetCrashpadDatabasePath_ExportThunk = Module.findExportByName("msedge_elf.dll", "GetCrashpadDatabasePath_ExportThunk")
Interceptor.attach(GetCrashpadDatabasePath_ExportThunk, {onLeave: function (args) {send("GetCrashpadDatabasePath_ExportThunk");}});

var GetElfLoadThreadId = Module.findExportByName("msedge_elf.dll", "GetElfLoadThreadId")
Interceptor.attach(GetElfLoadThreadId, {onLeave: function (args) {send("GetElfLoadThreadId");}});

var GetHandleVerifier = Module.findExportByName("msedge_elf.dll", "GetHandleVerifier")
Interceptor.attach(GetHandleVerifier, {onLeave: function (args) {send("GetHandleVerifier");}});

var GetInstallDetailsPayload = Module.findExportByName("msedge_elf.dll", "GetInstallDetailsPayload")
Interceptor.attach(GetInstallDetailsPayload, {onLeave: function (args) {send("GetInstallDetailsPayload");}});

var GetUniqueBlockedModulesCount = Module.findExportByName("msedge_elf.dll", "GetUniqueBlockedModulesCount")
Interceptor.attach(GetUniqueBlockedModulesCount, {onLeave: function (args) {send("GetUniqueBlockedModulesCount");}});

var GetUserDataDirectoryThunk = Module.findExportByName("msedge_elf.dll", "GetUserDataDirectoryThunk")
Interceptor.attach(GetUserDataDirectoryThunk, {onLeave: function (args) {send("GetUserDataDirectoryThunk");}});

var InjectDumpForHungInput_ExportThunk = Module.findExportByName("msedge_elf.dll", "InjectDumpForHungInput_ExportThunk")
Interceptor.attach(InjectDumpForHungInput_ExportThunk, {onLeave: function (args) {send("InjectDumpForHungInput_ExportThunk");}});

var IsBrowserProcess = Module.findExportByName("msedge_elf.dll", "IsBrowserProcess")
Interceptor.attach(IsBrowserProcess, {onLeave: function (args) {send("IsBrowserProcess");}});

var IsExtensionPointDisableSet = Module.findExportByName("msedge_elf.dll", "IsExtensionPointDisableSet")
Interceptor.attach(IsExtensionPointDisableSet, {onLeave: function (args) {send("IsExtensionPointDisableSet");}});

var IsThirdPartyInitialized = Module.findExportByName("msedge_elf.dll", "IsThirdPartyInitialized")
Interceptor.attach(IsThirdPartyInitialized, {onLeave: function (args) {send("IsThirdPartyInitialized");}});

var OQS_CPU_has_extension = Module.findExportByName("msedge_elf.dll", "OQS_CPU_has_extension")
Interceptor.attach(OQS_CPU_has_extension, {onLeave: function (args) {send("OQS_CPU_has_extension");}});

var OQS_KEM_alg_count = Module.findExportByName("msedge_elf.dll", "OQS_KEM_alg_count")
Interceptor.attach(OQS_KEM_alg_count, {onLeave: function (args) {send("OQS_KEM_alg_count");}});

var OQS_KEM_alg_identifier = Module.findExportByName("msedge_elf.dll", "OQS_KEM_alg_identifier")
Interceptor.attach(OQS_KEM_alg_identifier, {onLeave: function (args) {send("OQS_KEM_alg_identifier");}});

var OQS_KEM_alg_is_enabled = Module.findExportByName("msedge_elf.dll", "OQS_KEM_alg_is_enabled")
Interceptor.attach(OQS_KEM_alg_is_enabled, {onLeave: function (args) {send("OQS_KEM_alg_is_enabled");}});

var OQS_KEM_decaps = Module.findExportByName("msedge_elf.dll", "OQS_KEM_decaps")
Interceptor.attach(OQS_KEM_decaps, {onLeave: function (args) {send("OQS_KEM_decaps");}});

var OQS_KEM_encaps = Module.findExportByName("msedge_elf.dll", "OQS_KEM_encaps")
Interceptor.attach(OQS_KEM_encaps, {onLeave: function (args) {send("OQS_KEM_encaps");}});

var OQS_KEM_free = Module.findExportByName("msedge_elf.dll", "OQS_KEM_free")
Interceptor.attach(OQS_KEM_free, {onLeave: function (args) {send("OQS_KEM_free");}});

var OQS_KEM_keypair = Module.findExportByName("msedge_elf.dll", "OQS_KEM_keypair")
Interceptor.attach(OQS_KEM_keypair, {onLeave: function (args) {send("OQS_KEM_keypair");}});

var OQS_KEM_kyber_768_decaps = Module.findExportByName("msedge_elf.dll", "OQS_KEM_kyber_768_decaps")
Interceptor.attach(OQS_KEM_kyber_768_decaps, {onLeave: function (args) {send("OQS_KEM_kyber_768_decaps");}});

var OQS_KEM_kyber_768_encaps = Module.findExportByName("msedge_elf.dll", "OQS_KEM_kyber_768_encaps")
Interceptor.attach(OQS_KEM_kyber_768_encaps, {onLeave: function (args) {send("OQS_KEM_kyber_768_encaps");}});

var OQS_KEM_kyber_768_keypair = Module.findExportByName("msedge_elf.dll", "OQS_KEM_kyber_768_keypair")
Interceptor.attach(OQS_KEM_kyber_768_keypair, {onLeave: function (args) {send("OQS_KEM_kyber_768_keypair");}});

var OQS_KEM_new = Module.findExportByName("msedge_elf.dll", "OQS_KEM_new")
Interceptor.attach(OQS_KEM_new, {onLeave: function (args) {send("OQS_KEM_new");}});

var OQS_MEM_cleanse = Module.findExportByName("msedge_elf.dll", "OQS_MEM_cleanse")
Interceptor.attach(OQS_MEM_cleanse, {onLeave: function (args) {send("OQS_MEM_cleanse");}});

var OQS_MEM_insecure_free = Module.findExportByName("msedge_elf.dll", "OQS_MEM_insecure_free")
Interceptor.attach(OQS_MEM_insecure_free, {onLeave: function (args) {send("OQS_MEM_insecure_free");}});

var OQS_MEM_secure_bcmp = Module.findExportByName("msedge_elf.dll", "OQS_MEM_secure_bcmp")
Interceptor.attach(OQS_MEM_secure_bcmp, {onLeave: function (args) {send("OQS_MEM_secure_bcmp");}});

var OQS_MEM_secure_free = Module.findExportByName("msedge_elf.dll", "OQS_MEM_secure_free")
Interceptor.attach(OQS_MEM_secure_free, {onLeave: function (args) {send("OQS_MEM_secure_free");}});

var OQS_SIG_alg_count = Module.findExportByName("msedge_elf.dll", "OQS_SIG_alg_count")
Interceptor.attach(OQS_SIG_alg_count, {onLeave: function (args) {send("OQS_SIG_alg_count");}});

var OQS_SIG_alg_identifier = Module.findExportByName("msedge_elf.dll", "OQS_SIG_alg_identifier")
Interceptor.attach(OQS_SIG_alg_identifier, {onLeave: function (args) {send("OQS_SIG_alg_identifier");}});

var OQS_SIG_alg_is_enabled = Module.findExportByName("msedge_elf.dll", "OQS_SIG_alg_is_enabled")
Interceptor.attach(OQS_SIG_alg_is_enabled, {onLeave: function (args) {send("OQS_SIG_alg_is_enabled");}});

var OQS_SIG_free = Module.findExportByName("msedge_elf.dll", "OQS_SIG_free")
Interceptor.attach(OQS_SIG_free, {onLeave: function (args) {send("OQS_SIG_free");}});

var OQS_SIG_keypair = Module.findExportByName("msedge_elf.dll", "OQS_SIG_keypair")
Interceptor.attach(OQS_SIG_keypair, {onLeave: function (args) {send("OQS_SIG_keypair");}});

var OQS_SIG_new = Module.findExportByName("msedge_elf.dll", "OQS_SIG_new")
Interceptor.attach(OQS_SIG_new, {onLeave: function (args) {send("OQS_SIG_new");}});

var OQS_SIG_sign = Module.findExportByName("msedge_elf.dll", "OQS_SIG_sign")
Interceptor.attach(OQS_SIG_sign, {onLeave: function (args) {send("OQS_SIG_sign");}});

var OQS_SIG_verify = Module.findExportByName("msedge_elf.dll", "OQS_SIG_verify")
Interceptor.attach(OQS_SIG_verify, {onLeave: function (args) {send("OQS_SIG_verify");}});

var OQS_init = Module.findExportByName("msedge_elf.dll", "OQS_init")
Interceptor.attach(OQS_init, {onLeave: function (args) {send("OQS_init");}});

var OQS_randombytes = Module.findExportByName("msedge_elf.dll", "OQS_randombytes")
Interceptor.attach(OQS_randombytes, {onLeave: function (args) {send("OQS_randombytes");}});

var OQS_randombytes_custom_algorithm = Module.findExportByName("msedge_elf.dll", "OQS_randombytes_custom_algorithm")
Interceptor.attach(OQS_randombytes_custom_algorithm, {onLeave: function (args) {send("OQS_randombytes_custom_algorithm");}});

var OQS_randombytes_nist_kat_init_256bit = Module.findExportByName("msedge_elf.dll", "OQS_randombytes_nist_kat_init_256bit")
Interceptor.attach(OQS_randombytes_nist_kat_init_256bit, {onLeave: function (args) {send("OQS_randombytes_nist_kat_init_256bit");}});

var OQS_randombytes_switch_algorithm = Module.findExportByName("msedge_elf.dll", "OQS_randombytes_switch_algorithm")
Interceptor.attach(OQS_randombytes_switch_algorithm, {onLeave: function (args) {send("OQS_randombytes_switch_algorithm");}});

var OQS_version = Module.findExportByName("msedge_elf.dll", "OQS_version")
Interceptor.attach(OQS_version, {onLeave: function (args) {send("OQS_version");}});

var RegisterLogNotification = Module.findExportByName("msedge_elf.dll", "RegisterLogNotification")
Interceptor.attach(RegisterLogNotification, {onLeave: function (args) {send("RegisterLogNotification");}});

var RequestSingleCrashUpload_ExportThunk = Module.findExportByName("msedge_elf.dll", "RequestSingleCrashUpload_ExportThunk")
Interceptor.attach(RequestSingleCrashUpload_ExportThunk, {onLeave: function (args) {send("RequestSingleCrashUpload_ExportThunk");}});

var SetMetricsClientId = Module.findExportByName("msedge_elf.dll", "SetMetricsClientId")
Interceptor.attach(SetMetricsClientId, {onLeave: function (args) {send("SetMetricsClientId");}});

var SetTelemetryLevel_ExportThunk = Module.findExportByName("msedge_elf.dll", "SetTelemetryLevel_ExportThunk")
Interceptor.attach(SetTelemetryLevel_ExportThunk, {onLeave: function (args) {send("SetTelemetryLevel_ExportThunk");}});

var SetUploadConsent_ExportThunk = Module.findExportByName("msedge_elf.dll", "SetUploadConsent_ExportThunk")
Interceptor.attach(SetUploadConsent_ExportThunk, {onLeave: function (args) {send("SetUploadConsent_ExportThunk");}});

var SignalChromeElf = Module.findExportByName("msedge_elf.dll", "SignalChromeElf")
Interceptor.attach(SignalChromeElf, {onLeave: function (args) {send("SignalChromeElf");}});

var SignalInitializeCrashReporting = Module.findExportByName("msedge_elf.dll", "SignalInitializeCrashReporting")
Interceptor.attach(SignalInitializeCrashReporting, {onLeave: function (args) {send("SignalInitializeCrashReporting");}});

var StartAppWithParameter = Module.findExportByName("msedge_elf.dll", "StartAppWithParameter")
Interceptor.attach(StartAppWithParameter, {onLeave: function (args) {send("StartAppWithParameter");}});

